target datalayout = "e-m:e-p270:32:32-p271:32:32-p272:64:64-i64:64-i128:128-f80:128-n8:16:32:64-S128"
target triple = "x86_64-pc-linux-gnu"

%"struct.duckdb_hll::robj" = type { ptr }
%"struct.duckdb_hll::hllhdr" = type { [4 x i8], i8, [3 x i8], [8 x i8], [1 x i8] }
%"struct.duckdb_hll::sdshdr8" = type { i8, i8, i8, [1 x i8] }
%"struct.duckdb_hll::sdshdr16" = type { i16, i16, i8, [1 x i8] }
%"struct.duckdb_hll::sdshdr32" = type <{ i32, i32, i8, [1 x i8] }>
%"struct.duckdb_hll::sdshdr64" = type <{ i64, i64, i8, [1 x i8] }>

; Function Attrs: inlinehint mustprogress nounwind uwtable
define internal noundef i64 @_ZN10duckdb_hllL6sdslenEPc(ptr noundef %0) #3 {
  %2 = alloca i64, align 8
  %3 = alloca ptr, align 8
  %4 = alloca i8, align 1
  %5 = alloca i32, align 4
  store ptr %0, ptr %3, align 8, !tbaa !11
  call void @llvm.lifetime.start.p0(i64 1, ptr %4) #10
  %6 = load ptr, ptr %3, align 8, !tbaa !11
  %7 = getelementptr inbounds i8, ptr %6, i64 -1
  %8 = load i8, ptr %7, align 1, !tbaa !15
  store i8 %8, ptr %4, align 1, !tbaa !15
  %9 = load i8, ptr %4, align 1, !tbaa !15
  %10 = zext i8 %9 to i32
  %11 = and i32 %10, 7
  switch i32 %11, label %40 [
    i32 0, label %12
    i32 1, label %17
    i32 2, label %23
    i32 3, label %29
    i32 4, label %35
  ]

12:                                               ; preds = %1
  %13 = load i8, ptr %4, align 1, !tbaa !15
  %14 = zext i8 %13 to i32
  %15 = ashr i32 %14, 3
  %16 = sext i32 %15 to i64
  store i64 %16, ptr %2, align 8
  store i32 1, ptr %5, align 4
  br label %41

17:                                               ; preds = %1
  %18 = load ptr, ptr %3, align 8, !tbaa !11
  %19 = getelementptr inbounds i8, ptr %18, i64 -4
  %20 = getelementptr inbounds nuw %"struct.duckdb_hll::sdshdr8", ptr %19, i32 0, i32 0
  %21 = load i8, ptr %20, align 1, !tbaa !33
  %22 = zext i8 %21 to i64
  store i64 %22, ptr %2, align 8
  store i32 1, ptr %5, align 4
  br label %41

23:                                               ; preds = %1
  %24 = load ptr, ptr %3, align 8, !tbaa !11
  %25 = getelementptr inbounds i8, ptr %24, i64 -6
  %26 = getelementptr inbounds nuw %"struct.duckdb_hll::sdshdr16", ptr %25, i32 0, i32 0
  %27 = load i16, ptr %26, align 1, !tbaa !35
  %28 = zext i16 %27 to i64
  store i64 %28, ptr %2, align 8
  store i32 1, ptr %5, align 4
  br label %41

29:                                               ; preds = %1
  %30 = load ptr, ptr %3, align 8, !tbaa !11
  %31 = getelementptr inbounds i8, ptr %30, i64 -10
  %32 = getelementptr inbounds nuw %"struct.duckdb_hll::sdshdr32", ptr %31, i32 0, i32 0
  %33 = load i32, ptr %32, align 1, !tbaa !38
  %34 = zext i32 %33 to i64
  store i64 %34, ptr %2, align 8
  store i32 1, ptr %5, align 4
  br label %41

35:                                               ; preds = %1
  %36 = load ptr, ptr %3, align 8, !tbaa !11
  %37 = getelementptr inbounds i8, ptr %36, i64 -18
  %38 = getelementptr inbounds nuw %"struct.duckdb_hll::sdshdr64", ptr %37, i32 0, i32 0
  %39 = load i64, ptr %38, align 1, !tbaa !40
  store i64 %39, ptr %2, align 8
  store i32 1, ptr %5, align 4
  br label %41

40:                                               ; preds = %1
  store i64 0, ptr %2, align 8
  store i32 1, ptr %5, align 4
  br label %41

41:                                               ; preds = %40, %35, %29, %23, %17, %12
  call void @llvm.lifetime.end.p0(i64 1, ptr %4) #10
  %42 = load i64, ptr %2, align 8
  ret i64 %42
}

; Function Attrs: mustprogress uwtable
define noundef i32 @_ZN10duckdb_hll16hllSparseToDenseEPNS_4robjE(ptr noundef %0) #2 {
  %2 = alloca i32, align 4
  %3 = alloca ptr, align 8
  %4 = alloca ptr, align 8
  %5 = alloca ptr, align 8
  %6 = alloca ptr, align 8
  %7 = alloca ptr, align 8
  %8 = alloca i32, align 4
  %9 = alloca i32, align 4
  %10 = alloca i32, align 4
  %11 = alloca ptr, align 8
  %12 = alloca ptr, align 8
  %13 = alloca i32, align 4
  %14 = alloca ptr, align 8
  %15 = alloca i64, align 8
  %16 = alloca i64, align 8
  %17 = alloca i64, align 8
  %18 = alloca i64, align 8
  store ptr %0, ptr %3, align 8, !tbaa !22
  call void @llvm.lifetime.start.p0(i64 8, ptr %4) #10
  %19 = load ptr, ptr %3, align 8, !tbaa !22
  %20 = getelementptr inbounds nuw %"struct.duckdb_hll::robj", ptr %19, i32 0, i32 0
  %21 = load ptr, ptr %20, align 8, !tbaa !24
  store ptr %21, ptr %4, align 8, !tbaa !11
  call void @llvm.lifetime.start.p0(i64 8, ptr %5) #10
  call void @llvm.lifetime.start.p0(i64 8, ptr %6) #10
  call void @llvm.lifetime.start.p0(i64 8, ptr %7) #10
  %22 = load ptr, ptr %4, align 8, !tbaa !11
  store ptr %22, ptr %7, align 8, !tbaa !26
  call void @llvm.lifetime.start.p0(i64 4, ptr %8) #10
  store i32 0, ptr %8, align 4, !tbaa !7
  call void @llvm.lifetime.start.p0(i64 4, ptr %9) #10
  call void @llvm.lifetime.start.p0(i64 4, ptr %10) #10
  call void @llvm.lifetime.start.p0(i64 8, ptr %11) #10
  %23 = load ptr, ptr %4, align 8, !tbaa !11
  store ptr %23, ptr %11, align 8, !tbaa !11
  call void @llvm.lifetime.start.p0(i64 8, ptr %12) #10
  %24 = load ptr, ptr %11, align 8, !tbaa !11
  %25 = load ptr, ptr %4, align 8, !tbaa !11
  %26 = call noundef i64 @_ZN10duckdb_hllL6sdslenEPc(ptr noundef %25)
  %27 = getelementptr inbounds nuw i8, ptr %24, i64 %26
  store ptr %27, ptr %12, align 8, !tbaa !11
  %28 = load ptr, ptr %4, align 8, !tbaa !11
  store ptr %28, ptr %6, align 8, !tbaa !26
  %29 = load ptr, ptr %6, align 8, !tbaa !26
  %30 = getelementptr inbounds nuw %"struct.duckdb_hll::hllhdr", ptr %29, i32 0, i32 1
  %31 = load i8, ptr %30, align 1, !tbaa !28
  %32 = zext i8 %31 to i32
  %33 = icmp eq i32 %32, 0
  br i1 %33, label %34, label %35

34:                                               ; preds = %1
  store i32 0, ptr %2, align 4
  store i32 1, ptr %13, align 4
  br label %187

35:                                               ; preds = %1
  %36 = call noundef ptr @_ZN10duckdb_hll9sdsnewlenEPKvm(ptr noundef null, i64 noundef 3089)
  store ptr %36, ptr %5, align 8, !tbaa !11
  %37 = load ptr, ptr %5, align 8, !tbaa !11
  store ptr %37, ptr %6, align 8, !tbaa !26
  %38 = load ptr, ptr %7, align 8, !tbaa !26
  %39 = load ptr, ptr %6, align 8, !tbaa !26
  call void @llvm.memcpy.p0.p0.i64(ptr align 1 %39, ptr align 1 %38, i64 17, i1 false), !tbaa.struct !30
  %40 = load ptr, ptr %6, align 8, !tbaa !26
  %41 = getelementptr inbounds nuw %"struct.duckdb_hll::hllhdr", ptr %40, i32 0, i32 1
  store i8 0, ptr %41, align 1, !tbaa !28
  %42 = load ptr, ptr %11, align 8, !tbaa !11
  %43 = getelementptr inbounds nuw i8, ptr %42, i64 17
  store ptr %43, ptr %11, align 8, !tbaa !11
  br label %44

44:                                               ; preds = %174, %35
  %45 = load ptr, ptr %11, align 8, !tbaa !11
  %46 = load ptr, ptr %12, align 8, !tbaa !11
  %47 = icmp ult ptr %45, %46
  br i1 %47, label %48, label %175

48:                                               ; preds = %44
  %49 = load ptr, ptr %11, align 8, !tbaa !11
  %50 = load i8, ptr %49, align 1, !tbaa !15
  %51 = zext i8 %50 to i32
  %52 = and i32 %51, 192
  %53 = icmp eq i32 %52, 0
  br i1 %53, label %54, label %65

54:                                               ; preds = %48
  %55 = load ptr, ptr %11, align 8, !tbaa !11
  %56 = load i8, ptr %55, align 1, !tbaa !15
  %57 = zext i8 %56 to i32
  %58 = and i32 %57, 63
  %59 = add nsw i32 %58, 1
  store i32 %59, ptr %9, align 4, !tbaa !7
  %60 = load i32, ptr %9, align 4, !tbaa !7
  %61 = load i32, ptr %8, align 4, !tbaa !7
  %62 = add nsw i32 %61, %60
  store i32 %62, ptr %8, align 4, !tbaa !7
  %63 = load ptr, ptr %11, align 8, !tbaa !11
  %64 = getelementptr inbounds nuw i8, ptr %63, i32 1
  store ptr %64, ptr %11, align 8, !tbaa !11
  br label %174

65:                                               ; preds = %48
  %66 = load ptr, ptr %11, align 8, !tbaa !11
  %67 = load i8, ptr %66, align 1, !tbaa !15
  %68 = zext i8 %67 to i32
  %69 = and i32 %68, 192
  %70 = icmp eq i32 %69, 64
  br i1 %70, label %71, label %88

71:                                               ; preds = %65
  %72 = load ptr, ptr %11, align 8, !tbaa !11
  %73 = load i8, ptr %72, align 1, !tbaa !15
  %74 = zext i8 %73 to i32
  %75 = and i32 %74, 63
  %76 = shl i32 %75, 8
  %77 = load ptr, ptr %11, align 8, !tbaa !11
  %78 = getelementptr inbounds i8, ptr %77, i64 1
  %79 = load i8, ptr %78, align 1, !tbaa !15
  %80 = zext i8 %79 to i32
  %81 = or i32 %76, %80
  %82 = add nsw i32 %81, 1
  store i32 %82, ptr %9, align 4, !tbaa !7
  %83 = load i32, ptr %9, align 4, !tbaa !7
  %84 = load i32, ptr %8, align 4, !tbaa !7
  %85 = add nsw i32 %84, %83
  store i32 %85, ptr %8, align 4, !tbaa !7
  %86 = load ptr, ptr %11, align 8, !tbaa !11
  %87 = getelementptr inbounds i8, ptr %86, i64 2
  store ptr %87, ptr %11, align 8, !tbaa !11
  br label %173

88:                                               ; preds = %65
  %89 = load ptr, ptr %11, align 8, !tbaa !11
  %90 = load i8, ptr %89, align 1, !tbaa !15
  %91 = zext i8 %90 to i32
  %92 = and i32 %91, 3
  %93 = add nsw i32 %92, 1
  store i32 %93, ptr %9, align 4, !tbaa !7
  %94 = load ptr, ptr %11, align 8, !tbaa !11
  %95 = load i8, ptr %94, align 1, !tbaa !15
  %96 = zext i8 %95 to i32
  %97 = ashr i32 %96, 2
  %98 = and i32 %97, 31
  %99 = add nsw i32 %98, 1
  store i32 %99, ptr %10, align 4, !tbaa !7
  br label %100

100:                                              ; preds = %167, %88
  %101 = load i32, ptr %9, align 4, !tbaa !7
  %102 = add nsw i32 %101, -1
  store i32 %102, ptr %9, align 4, !tbaa !7
  %103 = icmp ne i32 %101, 0
  br i1 %103, label %104, label %170

104:                                              ; preds = %100
  br label %105

105:                                              ; preds = %104
  call void @llvm.lifetime.start.p0(i64 8, ptr %14) #10
  %106 = load ptr, ptr %6, align 8, !tbaa !26
  %107 = getelementptr inbounds nuw %"struct.duckdb_hll::hllhdr", ptr %106, i32 0, i32 4
  %108 = getelementptr inbounds [1 x i8], ptr %107, i64 0, i64 0
  %109 = getelementptr inbounds i8, ptr %108, i64 1
  store ptr %109, ptr %14, align 8, !tbaa !11
  call void @llvm.lifetime.start.p0(i64 8, ptr %15) #10
  %110 = load i32, ptr %8, align 4, !tbaa !7
  %111 = mul nsw i32 %110, 6
  %112 = sdiv i32 %111, 8
  %113 = sext i32 %112 to i64
  store i64 %113, ptr %15, align 8, !tbaa !9
  call void @llvm.lifetime.start.p0(i64 8, ptr %16) #10
  %114 = load i32, ptr %8, align 4, !tbaa !7
  %115 = mul nsw i32 %114, 6
  %116 = and i32 %115, 7
  %117 = sext i32 %116 to i64
  store i64 %117, ptr %16, align 8, !tbaa !9
  call void @llvm.lifetime.start.p0(i64 8, ptr %17) #10
  %118 = load i64, ptr %16, align 8, !tbaa !9
  %119 = sub i64 8, %118
  store i64 %119, ptr %17, align 8, !tbaa !9
  call void @llvm.lifetime.start.p0(i64 8, ptr %18) #10
  %120 = load i32, ptr %10, align 4, !tbaa !7
  %121 = sext i32 %120 to i64
  store i64 %121, ptr %18, align 8, !tbaa !9
  %122 = load i64, ptr %16, align 8, !tbaa !9
  %123 = trunc i64 %122 to i32
  %124 = shl i32 63, %123
  %125 = xor i32 %124, -1
  %126 = load ptr, ptr %14, align 8, !tbaa !11
  %127 = load i64, ptr %15, align 8, !tbaa !9
  %128 = getelementptr inbounds nuw i8, ptr %126, i64 %127
  %129 = load i8, ptr %128, align 1, !tbaa !15
  %130 = zext i8 %129 to i32
  %131 = and i32 %130, %125
  %132 = trunc i32 %131 to i8
  store i8 %132, ptr %128, align 1, !tbaa !15
  %133 = load i64, ptr %18, align 8, !tbaa !9
  %134 = load i64, ptr %16, align 8, !tbaa !9
  %135 = shl i64 %133, %134
  %136 = load ptr, ptr %14, align 8, !tbaa !11
  %137 = load i64, ptr %15, align 8, !tbaa !9
  %138 = getelementptr inbounds nuw i8, ptr %136, i64 %137
  %139 = load i8, ptr %138, align 1, !tbaa !15
  %140 = zext i8 %139 to i64
  %141 = or i64 %140, %135
  %142 = trunc i64 %141 to i8
  store i8 %142, ptr %138, align 1, !tbaa !15
  %143 = load i64, ptr %17, align 8, !tbaa !9
  %144 = trunc i64 %143 to i32
  %145 = ashr i32 63, %144
  %146 = xor i32 %145, -1
  %147 = load ptr, ptr %14, align 8, !tbaa !11
  %148 = load i64, ptr %15, align 8, !tbaa !9
  %149 = add i64 %148, 1
  %150 = getelementptr inbounds nuw i8, ptr %147, i64 %149
  %151 = load i8, ptr %150, align 1, !tbaa !15
  %152 = zext i8 %151 to i32
  %153 = and i32 %152, %146
  %154 = trunc i32 %153 to i8
  store i8 %154, ptr %150, align 1, !tbaa !15
  %155 = load i64, ptr %18, align 8, !tbaa !9
  %156 = load i64, ptr %17, align 8, !tbaa !9
  %157 = lshr i64 %155, %156
  %158 = load ptr, ptr %14, align 8, !tbaa !11
  %159 = load i64, ptr %15, align 8, !tbaa !9
  %160 = add i64 %159, 1
  %161 = getelementptr inbounds nuw i8, ptr %158, i64 %160
  %162 = load i8, ptr %161, align 1, !tbaa !15
  %163 = zext i8 %162 to i64
  %164 = or i64 %163, %157
  %165 = trunc i64 %164 to i8
  store i8 %165, ptr %161, align 1, !tbaa !15
  call void @llvm.lifetime.end.p0(i64 8, ptr %18) #10
  call void @llvm.lifetime.end.p0(i64 8, ptr %17) #10
  call void @llvm.lifetime.end.p0(i64 8, ptr %16) #10
  call void @llvm.lifetime.end.p0(i64 8, ptr %15) #10
  call void @llvm.lifetime.end.p0(i64 8, ptr %14) #10
  br label %166

166:                                              ; preds = %105
  br label %167

167:                                              ; preds = %166
  %168 = load i32, ptr %8, align 4, !tbaa !7
  %169 = add nsw i32 %168, 1
  store i32 %169, ptr %8, align 4, !tbaa !7
  br label %100, !llvm.loop !31

170:                                              ; preds = %100
  %171 = load ptr, ptr %11, align 8, !tbaa !11
  %172 = getelementptr inbounds nuw i8, ptr %171, i32 1
  store ptr %172, ptr %11, align 8, !tbaa !11
  br label %173

173:                                              ; preds = %170, %71
  br label %174

174:                                              ; preds = %173, %54
  br label %44, !llvm.loop !32

175:                                              ; preds = %44
  %176 = load i32, ptr %8, align 4, !tbaa !7
  %177 = icmp ne i32 %176, 4096
  br i1 %177, label %178, label %180

178:                                              ; preds = %175
  %179 = load ptr, ptr %5, align 8, !tbaa !11
  call void @_ZN10duckdb_hll7sdsfreeEPc(ptr noundef %179)
  store i32 -1, ptr %2, align 4
  store i32 1, ptr %13, align 4
  br label %187

180:                                              ; preds = %175
  %181 = load ptr, ptr %3, align 8, !tbaa !22
  %182 = getelementptr inbounds nuw %"struct.duckdb_hll::robj", ptr %181, i32 0, i32 0
  %183 = load ptr, ptr %182, align 8, !tbaa !24
  call void @_ZN10duckdb_hll7sdsfreeEPc(ptr noundef %183)
  %184 = load ptr, ptr %5, align 8, !tbaa !11
  %185 = load ptr, ptr %3, align 8, !tbaa !22
  %186 = getelementptr inbounds nuw %"struct.duckdb_hll::robj", ptr %185, i32 0, i32 0
  store ptr %184, ptr %186, align 8, !tbaa !24
  store i32 0, ptr %2, align 4
  store i32 1, ptr %13, align 4
  br label %187

187:                                              ; preds = %180, %178, %34
  call void @llvm.lifetime.end.p0(i64 8, ptr %12) #10
  call void @llvm.lifetime.end.p0(i64 8, ptr %11) #10
  call void @llvm.lifetime.end.p0(i64 4, ptr %10) #10
  call void @llvm.lifetime.end.p0(i64 4, ptr %9) #10
  call void @llvm.lifetime.end.p0(i64 4, ptr %8) #10
  call void @llvm.lifetime.end.p0(i64 8, ptr %7) #10
  call void @llvm.lifetime.end.p0(i64 8, ptr %6) #10
  call void @llvm.lifetime.end.p0(i64 8, ptr %5) #10
  call void @llvm.lifetime.end.p0(i64 8, ptr %4) #10
  %188 = load i32, ptr %2, align 4
  ret i32 %188
}