; Function Attrs: mustprogress uwtable
define noundef range(i32 -1, 1) i32 @_ZN10duckdb_hll16hllSparseToDenseEPNS_4robjE(ptr noundef captures(none) %0) local_unnamed_addr #3 {
  %2 = load ptr, ptr %0, align 8, !tbaa !14
  %3 = getelementptr inbounds i8, ptr %2, i64 -1
  %4 = load i8, ptr %3, align 1, !tbaa !9
  %5 = zext i8 %4 to i32
  %6 = and i32 %5, 7
  switch i32 %6, label %_ZN10duckdb_hllL6sdslenEPc.exit [
    i32 0, label %7
    i32 1, label %10
    i32 2, label %14
    i32 3, label %18
    i32 4, label %22
  ]

7:                                                ; preds = %1
  %8 = lshr i32 %5, 3
  %9 = zext nneg i32 %8 to i64
  br label %_ZN10duckdb_hllL6sdslenEPc.exit

10:                                               ; preds = %1
  %11 = getelementptr inbounds i8, ptr %2, i64 -4
  %12 = load i8, ptr %11, align 1, !tbaa !17
  %13 = zext i8 %12 to i64
  br label %_ZN10duckdb_hllL6sdslenEPc.exit

14:                                               ; preds = %1
  %15 = getelementptr inbounds i8, ptr %2, i64 -6
  %16 = load i16, ptr %15, align 1, !tbaa !19
  %17 = zext i16 %16 to i64
  br label %_ZN10duckdb_hllL6sdslenEPc.exit

18:                                               ; preds = %1
  %19 = getelementptr inbounds i8, ptr %2, i64 -10
  %20 = load i32, ptr %19, align 1, !tbaa !22
  %21 = zext i32 %20 to i64
  br label %_ZN10duckdb_hllL6sdslenEPc.exit

22:                                               ; preds = %1
  %23 = getelementptr inbounds i8, ptr %2, i64 -18
  %24 = load i64, ptr %23, align 1, !tbaa !24
  br label %_ZN10duckdb_hllL6sdslenEPc.exit

_ZN10duckdb_hllL6sdslenEPc.exit:                  ; preds = %1, %7, %10, %14, %18, %22
  %.0.i = phi i64 [ %24, %22 ], [ %21, %18 ], [ %17, %14 ], [ %13, %10 ], [ %9, %7 ], [ 0, %1 ]
  %25 = getelementptr inbounds nuw i8, ptr %2, i64 %.0.i
  %26 = getelementptr inbounds nuw i8, ptr %2, i64 4
  %27 = load i8, ptr %26, align 1, !tbaa !26
  %28 = icmp eq i8 %27, 0
  br i1 %28, label %89, label %29

29:                                               ; preds = %_ZN10duckdb_hllL6sdslenEPc.exit
  %30 = tail call noundef ptr @_ZN10duckdb_hll9sdsnewlenEPKvm(ptr noundef null, i64 noundef 3089)
  tail call void @llvm.memcpy.p0.p0.i64(ptr noundef nonnull align 1 dereferenceable(17) %30, ptr noundef nonnull align 1 dereferenceable(17) %2, i64 17, i1 false), !tbaa.struct !28
  %31 = getelementptr inbounds nuw i8, ptr %30, i64 4
  store i8 0, ptr %31, align 1, !tbaa !26
  %32 = icmp samesign ugt i64 %.0.i, 17
  br i1 %32, label %.lr.ph, label %._crit_edge.thread

.lr.ph:                                           ; preds = %29
  %33 = getelementptr inbounds nuw i8, ptr %2, i64 17
  %34 = getelementptr inbounds nuw i8, ptr %30, i64 17
  br label %35

35:                                               ; preds = %.lr.ph, %.loopexit
  %.05463 = phi i32 [ 0, %.lr.ph ], [ %.1, %.loopexit ]
  %.05662 = phi ptr [ %33, %.lr.ph ], [ %84, %.loopexit ]
  %36 = load i8, ptr %.05662, align 1, !tbaa !9
  %37 = zext i8 %36 to i32
  %trunc = and i8 %36, -64
  switch i8 %trunc, label %50 [
    i8 0, label %38
    i8 64, label %41
  ]

38:                                               ; preds = %35
  %39 = add i32 %.05463, 1
  %40 = add i32 %39, %37
  br label %.loopexit

41:                                               ; preds = %35
  %42 = shl nuw nsw i32 %37, 8
  %43 = and i32 %42, 16128
  %44 = getelementptr inbounds nuw i8, ptr %.05662, i64 1
  %45 = load i8, ptr %44, align 1, !tbaa !9
  %46 = zext i8 %45 to i32
  %47 = add i32 %.05463, 1
  %48 = add i32 %47, %43
  %49 = add i32 %48, %46
  br label %.loopexit

50:                                               ; preds = %35
  %51 = and i32 %37, 3
  %52 = add nuw nsw i32 %51, 1
  %53 = lshr i32 %37, 2
  %54 = and i32 %53, 31
  %55 = add nuw nsw i32 %54, 1
  %56 = zext nneg i32 %55 to i64
  br label %57

57:                                               ; preds = %50, %57
  %.261 = phi i32 [ %.05463, %50 ], [ %83, %57 ]
  %.05560 = phi i32 [ %52, %50 ], [ %58, %57 ]
  %58 = add nsw i32 %.05560, -1
  %59 = mul nsw i32 %.261, 6
  %60 = sdiv i32 %59, 8
  %61 = sext i32 %60 to i64
  %62 = and i32 %59, 6
  %63 = zext nneg i32 %62 to i64
  %64 = sub nuw nsw i64 8, %63
  %65 = shl nuw nsw i32 63, %62
  %66 = getelementptr inbounds nuw i8, ptr %34, i64 %61
  %67 = load i8, ptr %66, align 1, !tbaa !9
  %68 = trunc i32 %65 to i8
  %69 = xor i8 %68, -1
  %70 = and i8 %67, %69
  %71 = shl nuw nsw i64 %56, %63
  %72 = trunc i64 %71 to i8
  %73 = or i8 %70, %72
  store i8 %73, ptr %66, align 1, !tbaa !9
  %74 = trunc nuw nsw i64 %64 to i16
  %75 = ashr i16 -64, %74
  %76 = getelementptr i8, ptr %66, i64 1
  %77 = load i8, ptr %76, align 1, !tbaa !9
  %78 = trunc nsw i16 %75 to i8
  %79 = and i8 %77, %78
  %80 = lshr i64 %56, %64
  %81 = trunc nuw nsw i64 %80 to i8
  %82 = or i8 %79, %81
  store i8 %82, ptr %76, align 1, !tbaa !9
  %83 = add nsw i32 %.261, 1
  %.not59 = icmp eq i32 %58, 0
  br i1 %.not59, label %.loopexit, label %57, !llvm.loop !29

.loopexit:                                        ; preds = %57, %41, %38
  %.sink = phi i64 [ 2, %41 ], [ 1, %38 ], [ 1, %57 ]
  %.1 = phi i32 [ %49, %41 ], [ %40, %38 ], [ %83, %57 ]
  %84 = getelementptr inbounds nuw i8, ptr %.05662, i64 %.sink
  %85 = icmp ult ptr %84, %25
  br i1 %85, label %35, label %._crit_edge, !llvm.loop !30

._crit_edge:                                      ; preds = %.loopexit
  %86 = icmp eq i32 %.1, 4096
  br i1 %86, label %87, label %._crit_edge.thread

._crit_edge.thread:                               ; preds = %29, %._crit_edge
  tail call void @_ZN10duckdb_hll7sdsfreeEPc(ptr noundef nonnull %30)
  br label %89

87:                                               ; preds = %._crit_edge
  %88 = load ptr, ptr %0, align 8, !tbaa !14
  tail call void @_ZN10duckdb_hll7sdsfreeEPc(ptr noundef %88)
  store ptr %30, ptr %0, align 8, !tbaa !14
  br label %89

89:                                               ; preds = %_ZN10duckdb_hllL6sdslenEPc.exit, %87, %._crit_edge.thread
  %.0 = phi i32 [ -1, %._crit_edge.thread ], [ 0, %87 ], [ 0, %_ZN10duckdb_hllL6sdslenEPc.exit ]
  ret i32 %.0
}